target datalayout = "e-m:e-p270:32:32-p271:32:32-p272:64:64-i64:64-i128:128-f80:128-n8:16:32:64-S128"
target triple = "x86_64-pc-linux-gnu"

@.str.252 = private unnamed_addr constant [20 x i8] c"recent.capture_file\00", align 1
@.str.253 = private unnamed_addr constant [22 x i8] c"recent.display_filter\00", align 1
@.str.254 = private unnamed_addr constant [22 x i8] c"recent.capture_filter\00", align 1
@.str.255 = private unnamed_addr constant [23 x i8] c"recent.capture_filter.\00", align 1

; Function Attrs: null_pointer_is_valid sspstrong uwtable
define internal i32 @read_set_recent_pair_dynamic(ptr noundef %0, ptr noundef %1, ptr noundef %2, i1 noundef zeroext %3) #0 {
  %5 = alloca i32, align 4
  %6 = alloca ptr, align 8
  %7 = alloca ptr, align 8
  %8 = alloca ptr, align 8
  %9 = alloca i8, align 1
  store ptr %0, ptr %6, align 8
  store ptr %1, ptr %7, align 8
  store ptr %2, ptr %8, align 8
  %10 = zext i1 %3 to i8
  store i8 %10, ptr %9, align 1
  %11 = load ptr, ptr %7, align 8
  %12 = call i32 @g_utf8_validate(ptr noundef %11, i64 noundef -1, ptr noundef null)
  %13 = icmp ne i32 %12, 0
  br i1 %13, label %15, label %14

14:                                               ; preds = %4
  store i32 1, ptr %5, align 4
  br label %47

15:                                               ; preds = %4
  %16 = load ptr, ptr %6, align 8
  %17 = call i32 @strcmp(ptr noundef %16, ptr noundef @.str.252) #16
  %18 = icmp eq i32 %17, 0
  br i1 %18, label %19, label %21

19:                                               ; preds = %15
  %20 = load ptr, ptr %7, align 8
  call void @add_menu_recent_capture_file(ptr noundef %20, i1 noundef zeroext true)
  br label %46

21:                                               ; preds = %15
  %22 = load ptr, ptr %6, align 8
  %23 = call i32 @strcmp(ptr noundef %22, ptr noundef @.str.253) #16
  %24 = icmp eq i32 %23, 0
  br i1 %24, label %25, label %28

25:                                               ; preds = %21
  %26 = load ptr, ptr %7, align 8
  %27 = call zeroext i1 @dfilter_combo_add_recent(ptr noundef %26)
  br label %45

28:                                               ; preds = %21
  %29 = load ptr, ptr %6, align 8
  %30 = call i32 @strcmp(ptr noundef %29, ptr noundef @.str.254) #16
  %31 = icmp eq i32 %30, 0
  br i1 %31, label %32, label %34

32:                                               ; preds = %28
  %33 = load ptr, ptr %7, align 8
  call void @recent_add_cfilter(ptr noundef null, ptr noundef %33)
  br label %44

34:                                               ; preds = %28
  %35 = load ptr, ptr %6, align 8
  %36 = call i32 @g_str_has_prefix(ptr noundef %35, ptr noundef @.str.255)
  %37 = icmp ne i32 %36, 0
  br i1 %37, label %38, label %43

38:                                               ; preds = %34
  %39 = load ptr, ptr %6, align 8
  %40 = call ptr @strrchr(ptr noundef %39, i32 noundef 46) #16
  %41 = getelementptr i8, ptr %40, i64 1
  %42 = load ptr, ptr %7, align 8
  call void @recent_add_cfilter(ptr noundef %41, ptr noundef %42)
  br label %43

43:                                               ; preds = %38, %34
  br label %44

44:                                               ; preds = %43, %32
  br label %45

45:                                               ; preds = %44, %25
  br label %46

46:                                               ; preds = %45, %19
  store i32 0, ptr %5, align 4
  br label %47

47:                                               ; preds = %46, %14
  %48 = load i32, ptr %5, align 4
  ret i32 %48
}