; Function Attrs: null_pointer_is_valid sspstrong uwtable
define internal range(i32 0, 2) i32 @read_set_recent_pair_dynamic(ptr noundef %0, ptr noundef %1, ptr readnone captures(none) %2, i1 zeroext %3) #0 {
  %5 = tail call i32 @g_utf8_validate(ptr noundef %1, i64 noundef -1, ptr noundef null)
  %.not = icmp eq i32 %5, 0
  br i1 %.not, label %recent_add_cfilter.exit, label %6

6:                                                ; preds = %4
  %7 = tail call i32 @strcmp(ptr noundef %0, ptr noundef nonnull dereferenceable(20) @.str.252) #13
  %8 = icmp eq i32 %7, 0
  br i1 %8, label %9, label %10

9:                                                ; preds = %6
  tail call void @add_menu_recent_capture_file(ptr noundef %1, i1 noundef zeroext true)
  br label %recent_add_cfilter.exit

10:                                               ; preds = %6
  %11 = tail call i32 @strcmp(ptr noundef %0, ptr noundef nonnull dereferenceable(22) @.str.253) #13
  %12 = icmp eq i32 %11, 0
  br i1 %12, label %13, label %15

13:                                               ; preds = %10
  %14 = tail call zeroext i1 @dfilter_combo_add_recent(ptr noundef %1)
  br label %recent_add_cfilter.exit

15:                                               ; preds = %10
  %16 = tail call i32 @strcmp(ptr noundef %0, ptr noundef nonnull dereferenceable(22) @.str.254) #13
  %17 = icmp eq i32 %16, 0
  br i1 %17, label %18, label %36

18:                                               ; preds = %15
  %19 = load i8, ptr %1, align 1
  %20 = icmp eq i8 %19, 0
  br i1 %20, label %recent_add_cfilter.exit, label %21

21:                                               ; preds = %18
  %22 = load ptr, ptr @recent_cfilter_list, align 8
  %23 = tail call ptr @g_list_first(ptr noundef %22)
  %.not29.i = icmp eq ptr %23, null
  br i1 %.not29.i, label %.thread.i, label %.lr.ph.i

.lr.ph.i:                                         ; preds = %21, %27
  %.02230.i = phi ptr [ %29, %27 ], [ %23, %21 ]
  %24 = load ptr, ptr %.02230.i, align 8
  %25 = tail call i32 @strcmp(ptr noundef %1, ptr noundef %24) #13
  %26 = icmp eq i32 %25, 0
  br i1 %26, label %30, label %27

27:                                               ; preds = %.lr.ph.i
  %28 = getelementptr inbounds nuw i8, ptr %.02230.i, i64 8
  %29 = load ptr, ptr %28, align 8
  %.not.i = icmp eq ptr %29, null
  br i1 %.not.i, label %.thread.i, label %.lr.ph.i, !llvm.loop !6

30:                                               ; preds = %.lr.ph.i
  %31 = tail call ptr @g_list_remove(ptr noundef %22, ptr noundef %24)
  %32 = icmp eq ptr %24, null
  br i1 %32, label %.thread.i, label %34

.thread.i:                                        ; preds = %27, %30, %21
  %.12128.i = phi ptr [ %31, %30 ], [ %22, %21 ], [ %22, %27 ]
  %33 = tail call noalias ptr @g_strdup(ptr noundef %1)
  br label %34

34:                                               ; preds = %.thread.i, %30
  %.12127.i = phi ptr [ %.12128.i, %.thread.i ], [ %31, %30 ]
  %.1.i = phi ptr [ %33, %.thread.i ], [ %24, %30 ]
  %35 = tail call ptr @g_list_prepend(ptr noundef %.12127.i, ptr noundef %.1.i)
  store ptr %35, ptr @recent_cfilter_list, align 8
  br label %recent_add_cfilter.exit

36:                                               ; preds = %15
  %37 = tail call i32 @g_str_has_prefix(ptr noundef %0, ptr noundef nonnull @.str.255)
  %.not10 = icmp eq i32 %37, 0
  br i1 %.not10, label %recent_add_cfilter.exit, label %38

38:                                               ; preds = %36
  %39 = tail call ptr @strrchr(ptr noundef %0, i32 noundef 46) #13
  %40 = getelementptr i8, ptr %39, i64 1
  tail call void @recent_add_cfilter(ptr noundef %40, ptr noundef %1)
  br label %recent_add_cfilter.exit

recent_add_cfilter.exit:                          ; preds = %34, %18, %9, %38, %36, %13, %4
  %.0 = phi i32 [ 1, %4 ], [ 0, %13 ], [ 0, %36 ], [ 0, %38 ], [ 0, %9 ], [ 0, %18 ], [ 0, %34 ]
  ret i32 %.0
}